target datalayout = "e-m:e-p270:32:32-p271:32:32-p272:64:64-i64:64-i128:128-f80:128-n8:16:32:64-S128"
target triple = "x86_64-unknown-linux-gnu"

%struct.VirtIODevice = type { %struct.DeviceState, ptr, i8, i8, i16, i64, i64, i64, i64, ptr, i16, i32, i32, ptr, %struct.MemoryListener, i16, i8, i8, i8, i8, i8, i8, i8, i8, i8, ptr, ptr, i8, i8, ptr, ptr, %union.anon.1, %struct.EventNotifier, i8 }
%struct.DeviceState = type { %struct.Object, ptr, ptr, i8, i8, i64, ptr, i32, i8, ptr, %struct.NamedGPIOListHead, %struct.NamedClockListHead, %struct.BusStateHead, i32, i32, i32, %struct.ResettableState, ptr, %struct.MemReentrancyGuard }
%struct.Object = type { ptr, ptr, ptr, i32, ptr }
%struct.NamedGPIOListHead = type { ptr }
%struct.NamedClockListHead = type { ptr }
%struct.BusStateHead = type { ptr }
%struct.ResettableState = type { i32, i8, i8 }
%struct.MemReentrancyGuard = type { i8 }
%struct.MemoryListener = type { ptr, ptr, ptr, ptr, ptr, ptr, ptr, ptr, ptr, ptr, ptr, ptr, ptr, ptr, ptr, ptr, ptr, i32, ptr, ptr, %union.anon, %union.anon.0 }
%union.anon = type { %struct.QTailQLink }
%struct.QTailQLink = type { ptr, ptr }
%union.anon.0 = type { %struct.QTailQLink }
%union.anon.1 = type { %struct.QTailQLink }
%struct.EventNotifier = type { i32, i32, i8 }
%struct.VirtioBusClass = type { %struct.BusClass, ptr, ptr, ptr, ptr, ptr, ptr, ptr, ptr, ptr, ptr, ptr, ptr, ptr, ptr, ptr, ptr, ptr, ptr, ptr, ptr, i8, ptr, ptr }
%struct.BusClass = type { %struct.ObjectClass, ptr, ptr, ptr, ptr, ptr, ptr, ptr, i32, i32 }
%struct.ObjectClass = type { ptr, ptr, [4 x ptr], [4 x ptr], ptr, ptr }
%struct.BusState = type { %struct.Object, ptr, ptr, ptr, i32, i8, i8, i32, %union.BusChildHead, %struct.BusStateEntry, %struct.ResettableState }
%union.BusChildHead = type { %struct.QTailQLink }
%struct.BusStateEntry = type { ptr, ptr }

@.str.42 = private unnamed_addr constant [27 x i8] c"../qemu/hw/virtio/virtio.c\00", align 1
@.str.96 = private unnamed_addr constant [7 x i8] c"device\00", align 1
@.str.97 = private unnamed_addr constant [101 x i8] c"/home/dtcxzyw/WorkSpace/Projects/compilers/llvm-opt-benchmark/bench/qemu/qemu/include/hw/qdev-core.h\00", align 1
@__func__.DEVICE = private unnamed_addr constant [7 x i8] c"DEVICE\00", align 1
@.str.98 = private unnamed_addr constant [11 x i8] c"virtio-bus\00", align 1
@.str.99 = private unnamed_addr constant [109 x i8] c"/home/dtcxzyw/WorkSpace/Projects/compilers/llvm-opt-benchmark/bench/qemu/qemu/include/hw/virtio/virtio-bus.h\00", align 1
@__func__.VIRTIO_BUS_GET_CLASS = private unnamed_addr constant [21 x i8] c"VIRTIO_BUS_GET_CLASS\00", align 1
@__func__.virtio_set_isr = private unnamed_addr constant [15 x i8] c"virtio_set_isr\00", align 1

; Function Attrs: nounwind sspstrong uwtable
define internal zeroext i1 @virtio_device_disabled(ptr noundef %vdev) #0 {
entry:
  %vdev.addr = alloca ptr, align 8
  store ptr %vdev, ptr %vdev.addr, align 8
  %0 = load ptr, ptr %vdev.addr, align 8
  %disabled = getelementptr inbounds %struct.VirtIODevice, ptr %0, i32 0, i32 19
  %1 = load i8, ptr %disabled, align 1
  %tobool = trunc i8 %1 to i1
  br i1 %tobool, label %lor.end, label %lor.rhs

lor.rhs:                                          ; preds = %entry
  %2 = load ptr, ptr %vdev.addr, align 8
  %broken = getelementptr inbounds %struct.VirtIODevice, ptr %2, i32 0, i32 17
  %3 = load i8, ptr %broken, align 1
  %tobool1 = trunc i8 %3 to i1
  br label %lor.end

lor.end:                                          ; preds = %lor.rhs, %entry
  %4 = phi i1 [ true, %entry ], [ %tobool1, %lor.rhs ]
  %lnot = xor i1 %4, true
  %lnot2 = xor i1 %lnot, true
  %lnot.ext = zext i1 %lnot2 to i32
  %conv = sext i32 %lnot.ext to i64
  %tobool3 = icmp ne i64 %conv, 0
  ret i1 %tobool3
}

; Function Attrs: nounwind sspstrong uwtable
define internal ptr @VIRTIO_BUS_GET_CLASS(ptr noundef %obj) #0 {
entry:
  %obj.addr = alloca ptr, align 8
  store ptr %obj, ptr %obj.addr, align 8
  %0 = load ptr, ptr %obj.addr, align 8
  %call = call ptr @object_get_class(ptr noundef %0)
  %call1 = call ptr @object_class_dynamic_cast_assert(ptr noundef %call, ptr noundef @.str.98, ptr noundef @.str.99, i32 noundef 36, ptr noundef @__func__.VIRTIO_BUS_GET_CLASS)
  ret ptr %call1
}

; Function Attrs: nounwind sspstrong uwtable
define internal ptr @DEVICE(ptr noundef %obj) #0 {
entry:
  %obj.addr = alloca ptr, align 8
  store ptr %obj, ptr %obj.addr, align 8
  %0 = load ptr, ptr %obj.addr, align 8
  %call = call ptr @object_dynamic_cast_assert(ptr noundef %0, ptr noundef @.str.96, ptr noundef @.str.97, i32 noundef 77, ptr noundef @__func__.DEVICE)
  ret ptr %call
}

; Function Attrs: nounwind sspstrong uwtable
define internal void @virtio_notify_vector(ptr noundef %vdev, i16 noundef zeroext %vector) #0 {
entry:
  %vdev.addr = alloca ptr, align 8
  %vector.addr = alloca i16, align 2
  %qbus = alloca ptr, align 8
  %k = alloca ptr, align 8
  store ptr %vdev, ptr %vdev.addr, align 8
  store i16 %vector, ptr %vector.addr, align 2
  %0 = load ptr, ptr %vdev.addr, align 8
  %call = call ptr @DEVICE(ptr noundef %0)
  %call1 = call ptr @qdev_get_parent_bus(ptr noundef %call)
  store ptr %call1, ptr %qbus, align 8
  %1 = load ptr, ptr %qbus, align 8
  %call2 = call ptr @VIRTIO_BUS_GET_CLASS(ptr noundef %1)
  store ptr %call2, ptr %k, align 8
  %2 = load ptr, ptr %vdev.addr, align 8
  %call3 = call zeroext i1 @virtio_device_disabled(ptr noundef %2)
  br i1 %call3, label %if.then, label %if.end

if.then:                                          ; preds = %entry
  br label %if.end6

if.end:                                           ; preds = %entry
  %3 = load ptr, ptr %k, align 8
  %notify = getelementptr inbounds %struct.VirtioBusClass, ptr %3, i32 0, i32 1
  %4 = load ptr, ptr %notify, align 8
  %tobool = icmp ne ptr %4, null
  br i1 %tobool, label %if.then4, label %if.end6

if.then4:                                         ; preds = %if.end
  %5 = load ptr, ptr %k, align 8
  %notify5 = getelementptr inbounds %struct.VirtioBusClass, ptr %5, i32 0, i32 1
  %6 = load ptr, ptr %notify5, align 8
  %7 = load ptr, ptr %qbus, align 8
  %parent = getelementptr inbounds %struct.BusState, ptr %7, i32 0, i32 1
  %8 = load ptr, ptr %parent, align 8
  %9 = load i16, ptr %vector.addr, align 2
  call void %6(ptr noundef %8, i16 noundef zeroext %9)
  br label %if.end6

if.end6:                                          ; preds = %if.then4, %if.end, %if.then
  ret void
}

; Function Attrs: nounwind sspstrong uwtable
define internal void @virtio_set_isr(ptr noundef %vdev, i32 noundef %value) #0 {
entry:
  %vdev.addr = alloca ptr, align 8
  %value.addr = alloca i32, align 4
  %old = alloca i8, align 1
  %tmp = alloca i8, align 1
  %atomic-temp = alloca i8, align 1
  %.atomictmp = alloca i8, align 1
  %atomic-temp4 = alloca i8, align 1
  store ptr %vdev, ptr %vdev.addr, align 8
  store i32 %value, ptr %value.addr, align 4
  br label %while.cond

while.cond:                                       ; preds = %do.end, %entry
  br i1 false, label %while.body, label %while.end

while.body:                                       ; preds = %while.cond
  br label %do.body

do.body:                                          ; preds = %while.body
  call void @g_assertion_message_expr(ptr noundef null, ptr noundef @.str.42, i32 noundef 2362, ptr noundef @__func__.virtio_set_isr, ptr noundef null) #12
  unreachable

do.end:                                           ; No predecessors!
  br label %while.cond

while.end:                                        ; preds = %while.cond
  %0 = load ptr, ptr %vdev.addr, align 8
  %isr = getelementptr inbounds %struct.VirtIODevice, ptr %0, i32 0, i32 3
  %1 = load atomic i8, ptr %isr monotonic, align 1
  store i8 %1, ptr %atomic-temp, align 1
  %2 = load i8, ptr %atomic-temp, align 1
  store i8 %2, ptr %tmp, align 1
  %3 = load i8, ptr %tmp, align 1
  store i8 %3, ptr %old, align 1
  %4 = load i8, ptr %old, align 1
  %conv = zext i8 %4 to i32
  %5 = load i32, ptr %value.addr, align 4
  %and = and i32 %conv, %5
  %6 = load i32, ptr %value.addr, align 4
  %cmp = icmp ne i32 %and, %6
  br i1 %cmp, label %if.then, label %if.end

if.then:                                          ; preds = %while.end
  %7 = load ptr, ptr %vdev.addr, align 8
  %isr2 = getelementptr inbounds %struct.VirtIODevice, ptr %7, i32 0, i32 3
  %8 = load i32, ptr %value.addr, align 4
  %conv3 = trunc i32 %8 to i8
  store i8 %conv3, ptr %.atomictmp, align 1
  %9 = load i8, ptr %.atomictmp, align 1
  %10 = atomicrmw or ptr %isr2, i8 %9 seq_cst, align 1
  store i8 %10, ptr %atomic-temp4, align 1
  br label %if.end

if.end:                                           ; preds = %if.then, %while.end
  ret void
}

; Function Attrs: nounwind sspstrong uwtable
define dso_local void @virtio_notify_config(ptr noundef %vdev) #0 {
entry:
  %vdev.addr = alloca ptr, align 8
  store ptr %vdev, ptr %vdev.addr, align 8
  %0 = load ptr, ptr %vdev.addr, align 8
  %status = getelementptr inbounds %struct.VirtIODevice, ptr %0, i32 0, i32 2
  %1 = load i8, ptr %status, align 8
  %conv = zext i8 %1 to i32
  %and = and i32 %conv, 4
  %tobool = icmp ne i32 %and, 0
  br i1 %tobool, label %if.end, label %if.then

if.then:                                          ; preds = %entry
  br label %return

if.end:                                           ; preds = %entry
  %2 = load ptr, ptr %vdev.addr, align 8
  call void @virtio_set_isr(ptr noundef %2, i32 noundef 3)
  %3 = load ptr, ptr %vdev.addr, align 8
  %generation = getelementptr inbounds %struct.VirtIODevice, ptr %3, i32 0, i32 11
  %4 = load i32, ptr %generation, align 4
  %inc = add i32 %4, 1
  store i32 %inc, ptr %generation, align 4
  %5 = load ptr, ptr %vdev.addr, align 8
  %6 = load ptr, ptr %vdev.addr, align 8
  %config_vector = getelementptr inbounds %struct.VirtIODevice, ptr %6, i32 0, i32 10
  %7 = load i16, ptr %config_vector, align 8
  call void @virtio_notify_vector(ptr noundef %5, i16 noundef zeroext %7)
  br label %return

return:                                           ; preds = %if.end, %if.then
  ret void
}