; Function Attrs: nounwind sspstrong uwtable
define dso_local void @virtio_notify_config(ptr noundef %vdev) local_unnamed_addr #0 {
entry:
  %status = getelementptr inbounds nuw i8, ptr %vdev, i64 168
  %0 = load i8, ptr %status, align 8
  %1 = and i8 %0, 4
  %tobool.not = icmp eq i8 %1, 0
  br i1 %tobool.not, label %return, label %if.end

if.end:                                           ; preds = %entry
  %isr.i = getelementptr inbounds nuw i8, ptr %vdev, i64 169
  %2 = load atomic i8, ptr %isr.i monotonic, align 1
  %3 = and i8 %2, 3
  %cmp.not.i = icmp eq i8 %3, 3
  br i1 %cmp.not.i, label %virtio_set_isr.exit, label %if.then.i

if.then.i:                                        ; preds = %if.end
  %4 = atomicrmw or ptr %isr.i, i8 3 seq_cst, align 1
  br label %virtio_set_isr.exit

virtio_set_isr.exit:                              ; preds = %if.end, %if.then.i
  %generation = getelementptr inbounds nuw i8, ptr %vdev, i64 220
  %5 = load i32, ptr %generation, align 4
  %inc = add i32 %5, 1
  store i32 %inc, ptr %generation, align 4
  %config_vector = getelementptr inbounds nuw i8, ptr %vdev, i64 216
  %6 = load i16, ptr %config_vector, align 8
  %call.i.i = tail call ptr @object_dynamic_cast_assert(ptr noundef nonnull %vdev, ptr noundef nonnull @.str.96, ptr noundef nonnull @.str.97, i32 noundef 77, ptr noundef nonnull @__func__.DEVICE) #23
  %call1.i = tail call ptr @qdev_get_parent_bus(ptr noundef %call.i.i) #23
  %call.i4.i = tail call ptr @object_get_class(ptr noundef %call1.i) #23
  %call1.i.i = tail call ptr @object_class_dynamic_cast_assert(ptr noundef %call.i4.i, ptr noundef nonnull @.str.98, ptr noundef nonnull @.str.99, i32 noundef 36, ptr noundef nonnull @__func__.VIRTIO_BUS_GET_CLASS) #23
  %disabled.i.i = getelementptr inbounds nuw i8, ptr %vdev, i64 437
  %7 = load i8, ptr %disabled.i.i, align 1
  %tobool.i.i = trunc i8 %7 to i1
  br i1 %tobool.i.i, label %return, label %virtio_device_disabled.exit.i

virtio_device_disabled.exit.i:                    ; preds = %virtio_set_isr.exit
  %broken.i.i = getelementptr inbounds nuw i8, ptr %vdev, i64 435
  %8 = load i8, ptr %broken.i.i, align 1
  %tobool1.i.i = trunc i8 %8 to i1
  br i1 %tobool1.i.i, label %return, label %if.end.i

if.end.i:                                         ; preds = %virtio_device_disabled.exit.i
  %notify.i = getelementptr inbounds nuw i8, ptr %call1.i.i, i64 160
  %9 = load ptr, ptr %notify.i, align 8
  %tobool.not.i = icmp eq ptr %9, null
  br i1 %tobool.not.i, label %return, label %if.then4.i

if.then4.i:                                       ; preds = %if.end.i
  %parent.i = getelementptr inbounds nuw i8, ptr %call1.i, i64 40
  %10 = load ptr, ptr %parent.i, align 8
  tail call void %9(ptr noundef %10, i16 noundef zeroext %6) #23
  br label %return

return:                                           ; preds = %if.then4.i, %if.end.i, %virtio_device_disabled.exit.i, %virtio_set_isr.exit, %entry
  ret void
}